(dp0
S'targetPath'
p1
S'/Users/MAC/Desktop/\xe6\x95\xb4\xe7\x90\x86/Package'
p2
sS'projectPath'
p3
S'/Users/MAC/Mobile/Git/LineView/LineView'
p4
sS'hasWorkspace'
p5
I01
sS'targetName'
p6
S'LineView'
p7
sS'projectName'
p8
S'LineView'
p9
s.